(dp0
I3
(dp1
S'reduced'
p2
S'no_lenses'
p3
sS'normal'
p4
(dp5
I2
(dp6
S'yes'
p7
(dp8
I1
(dp9
S'hyper'
p10
(dp11
I0
(dp12
S'pre'
p13
S'no_lenses'
p14
sS'presbyopic'
p15
S'no_lenses'
p16
sS'young'
p17
S'hard'
p18
sssS'myope'
p19
S'hard'
p20
sssS'no'
p21
(dp22
I0
(dp23
S'pre'
p24
S'soft'
p25
sS'presbyopic'
p26
(dp27
I0
(dp28
S'hyper'
p29
S'soft'
p30
sS'myope'
p31
S'no_lenses'
p32
sssS'young'
p33
S'soft'
p34
ssssss.